target datalayout = "e-m:e-p270:32:32-p271:32:32-p272:64:64-i64:64-i128:128-f80:128-n8:16:32:64-S128"
target triple = "x86_64-pc-linux-gnu"

%struct.ML_KEM_VINFO = type { ptr, i64, i64, i64, i64, i64, i64, i64, i32, i32, i32, i32, i32, i32 }
%struct.ossl_ml_kem_key_st = type { ptr, ptr, ptr, ptr, ptr, ptr, ptr, ptr, ptr, ptr, ptr, ptr, ptr, i32, i32, [64 x i8], ptr }

; Function Attrs: nounwind uwtable
define i32 @ossl_ml_kem_encap_rand(ptr noundef %0, i64 noundef %1, ptr noundef %2, i64 noundef %3, ptr noundef %4) #0 {
  %6 = alloca i32, align 4
  %7 = alloca ptr, align 8
  %8 = alloca i64, align 8
  %9 = alloca ptr, align 8
  %10 = alloca i64, align 8
  %11 = alloca ptr, align 8
  %12 = alloca [32 x i8], align 16
  %13 = alloca i32, align 4
  store ptr %0, ptr %7, align 8, !tbaa !25
  store i64 %1, ptr %8, align 8, !tbaa !42
  store ptr %2, ptr %9, align 8, !tbaa !25
  store i64 %3, ptr %10, align 8, !tbaa !42
  store ptr %4, ptr %11, align 8, !tbaa !3
  call void @llvm.lifetime.start.p0(i64 32, ptr %12) #8
  %14 = load ptr, ptr %11, align 8, !tbaa !3
  %15 = icmp eq ptr %14, null
  br i1 %15, label %16, label %17

16:                                               ; preds = %5
  store i32 0, ptr %6, align 4
  store i32 1, ptr %13, align 4
  br label %38

17:                                               ; preds = %5
  %18 = load ptr, ptr %11, align 8, !tbaa !3
  %19 = getelementptr inbounds nuw %struct.ossl_ml_kem_key_st, ptr %18, i32 0, i32 1
  %20 = load ptr, ptr %19, align 8, !tbaa !27
  %21 = getelementptr inbounds [32 x i8], ptr %12, i64 0, i64 0
  %22 = load ptr, ptr %11, align 8, !tbaa !3
  %23 = getelementptr inbounds nuw %struct.ossl_ml_kem_key_st, ptr %22, i32 0, i32 0
  %24 = load ptr, ptr %23, align 8, !tbaa !16
  %25 = getelementptr inbounds nuw %struct.ML_KEM_VINFO, ptr %24, i32 0, i32 13
  %26 = load i32, ptr %25, align 4, !tbaa !46
  %27 = call i32 @RAND_bytes_ex(ptr noundef %20, ptr noundef %21, i64 noundef 32, i32 noundef %26)
  %28 = icmp slt i32 %27, 1
  br i1 %28, label %29, label %30

29:                                               ; preds = %17
  store i32 0, ptr %6, align 4
  store i32 1, ptr %13, align 4
  br label %38

30:                                               ; preds = %17
  %31 = load ptr, ptr %7, align 8, !tbaa !25
  %32 = load i64, ptr %8, align 8, !tbaa !42
  %33 = load ptr, ptr %9, align 8, !tbaa !25
  %34 = load i64, ptr %10, align 8, !tbaa !42
  %35 = getelementptr inbounds [32 x i8], ptr %12, i64 0, i64 0
  %36 = load ptr, ptr %11, align 8, !tbaa !3
  %37 = call i32 @ossl_ml_kem_encap_seed(ptr noundef %31, i64 noundef %32, ptr noundef %33, i64 noundef %34, ptr noundef %35, i64 noundef 32, ptr noundef %36)
  store i32 %37, ptr %6, align 4
  store i32 1, ptr %13, align 4
  br label %38

38:                                               ; preds = %30, %29, %16
  call void @llvm.lifetime.end.p0(i64 32, ptr %12) #8
  %39 = load i32, ptr %6, align 4
  ret i32 %39
}