; Function Attrs: nounwind uwtable
define range(i32 0, 2) i32 @ossl_ml_kem_encap_rand(ptr noundef captures(address_is_null) %0, i64 noundef %1, ptr noundef captures(address_is_null) %2, i64 noundef %3, ptr noundef %4) local_unnamed_addr #0 {
  %6 = alloca [32 x i8], align 16
  call void @llvm.lifetime.start.p0(i64 32, ptr nonnull %6) #13
  %7 = icmp eq ptr %4, null
  br i1 %7, label %18, label %8

8:                                                ; preds = %5
  %9 = getelementptr inbounds nuw i8, ptr %4, i64 8
  %10 = load ptr, ptr %9, align 8, !tbaa !18
  %11 = load ptr, ptr %4, align 8, !tbaa !14
  %12 = getelementptr inbounds nuw i8, ptr %11, i64 84
  %13 = load i32, ptr %12, align 4, !tbaa !44
  %14 = call i32 @RAND_bytes_ex(ptr noundef %10, ptr noundef nonnull %6, i64 noundef 32, i32 noundef %13) #13
  %15 = icmp slt i32 %14, 1
  br i1 %15, label %18, label %16

16:                                               ; preds = %8
  %17 = call i32 @ossl_ml_kem_encap_seed(ptr noundef %0, i64 noundef %1, ptr noundef %2, i64 noundef %3, ptr noundef nonnull %6, i64 noundef 32, ptr noundef nonnull %4)
  br label %18

18:                                               ; preds = %8, %5, %16
  %.0 = phi i32 [ %17, %16 ], [ 0, %5 ], [ 0, %8 ]
  call void @llvm.lifetime.end.p0(i64 32, ptr nonnull %6) #13
  ret i32 %.0
}